target datalayout = "e-m:e-p270:32:32-p271:32:32-p272:64:64-i64:64-i128:128-f80:128-n8:16:32:64-S128"
target triple = "x86_64-pc-linux-gnu"

%class.NativeCallStack = type { [4 x ptr] }
%class.ThreadCritical = type { i8 }

@XAddressMetadataMarked0 = external global i64, align 8
@XAddressOffsetMask = external global i64, align 8
@_ZN10MemTracker15_tracking_levelE = external global i32, align 4

; Function Attrs: mustprogress nounwind uwtable
define linkonce_odr hidden noundef zeroext i1 @_ZN10MemTracker7enabledEv() #1 comdat align 2 {
  %1 = load i32, ptr @_ZN10MemTracker15_tracking_levelE, align 4
  %2 = icmp sgt i32 %1, 1
  ret i1 %2
}

; Function Attrs: mustprogress nounwind uwtable
define linkonce_odr hidden void @_ZN10MemTracker16assert_post_initEv() #1 comdat align 2 {
  ret void
}

; Function Attrs: mustprogress nounwind uwtable
define linkonce_odr hidden noundef i64 @_ZN8XAddress6offsetEm(i64 noundef %0) #1 comdat align 2 {
  %2 = alloca i64, align 8
  store i64 %0, ptr %2, align 8
  %3 = load i64, ptr %2, align 8
  %4 = load i64, ptr @XAddressOffsetMask, align 8
  %5 = and i64 %3, %4
  ret i64 %5
}

; Function Attrs: mustprogress nounwind uwtable
define linkonce_odr hidden void @_ZN10MemTracker28record_virtual_memory_commitEPvmRK15NativeCallStack(ptr noundef %0, i64 noundef %1, ptr noundef nonnull align 8 dereferenceable(32) %2) #1 comdat align 2 {
  %4 = alloca ptr, align 8
  %5 = alloca i64, align 8
  %6 = alloca ptr, align 8
  %7 = alloca %class.ThreadCritical, align 1
  store ptr %0, ptr %4, align 8
  store i64 %1, ptr %5, align 8
  store ptr %2, ptr %6, align 8
  call void @_ZN10MemTracker16assert_post_initEv()
  %8 = call noundef zeroext i1 @_ZN10MemTracker7enabledEv()
  br i1 %8, label %10, label %9

9:                                                ; preds = %3
  br label %18

10:                                               ; preds = %3
  %11 = load ptr, ptr %4, align 8
  %12 = icmp ne ptr %11, null
  br i1 %12, label %13, label %18

13:                                               ; preds = %10
  call void @_ZN14ThreadCriticalC1Ev(ptr noundef nonnull align 1 dereferenceable(1) %7)
  %14 = load ptr, ptr %4, align 8
  %15 = load i64, ptr %5, align 8
  %16 = load ptr, ptr %6, align 8
  %17 = call noundef zeroext i1 @_ZN20VirtualMemoryTracker20add_committed_regionEPhmRK15NativeCallStack(ptr noundef %14, i64 noundef %15, ptr noundef nonnull align 8 dereferenceable(32) %16)
  call void @_ZN14ThreadCriticalD1Ev(ptr noundef nonnull align 1 dereferenceable(1) %7) #7
  br label %18

18:                                               ; preds = %13, %10, %9
  ret void
}

; Function Attrs: mustprogress nounwind uwtable
define linkonce_odr hidden void @_ZN15NativeCallStackC2ENS_10FakeMarkerE(ptr noundef nonnull align 8 dereferenceable(32) %0, i32 noundef %1) unnamed_addr #1 comdat align 2 {
  %3 = alloca ptr, align 8
  %4 = alloca i32, align 4
  store ptr %0, ptr %3, align 8
  store i32 %1, ptr %4, align 4
  ret void
}

; Function Attrs: mustprogress nounwind uwtable
define linkonce_odr hidden noundef i32 @_ZN10MemTracker14tracking_levelEv() #1 comdat align 2 {
  %1 = load i32, ptr @_ZN10MemTracker15_tracking_levelE, align 4
  ret i32 %1
}

; Function Attrs: mustprogress nounwind uwtable
define linkonce_odr hidden noundef i64 @_ZN8XAddress7marked0Em(i64 noundef %0) #1 comdat align 2 {
  %2 = alloca i64, align 8
  store i64 %0, ptr %2, align 8
  %3 = load i64, ptr %2, align 8
  %4 = call noundef i64 @_ZN8XAddress6offsetEm(i64 noundef %3)
  %5 = load i64, ptr @XAddressMetadataMarked0, align 8
  %6 = or i64 %4, %5
  ret i64 %6
}

; Function Attrs: mustprogress nounwind uwtable
define hidden void @_ZNK22XPhysicalMemoryManager10nmt_commitEmm(ptr noundef nonnull align 8 dereferenceable(160) %0, i64 noundef %1, i64 noundef %2) #1 align 2 {
  %4 = alloca ptr, align 8
  %5 = alloca i64, align 8
  %6 = alloca i64, align 8
  %7 = alloca i64, align 8
  %8 = alloca %class.NativeCallStack, align 8
  store ptr %0, ptr %4, align 8
  store i64 %1, ptr %5, align 8
  store i64 %2, ptr %6, align 8
  %9 = load i64, ptr %5, align 8
  %10 = call noundef i64 @_ZN8XAddress7marked0Em(i64 noundef %9)
  store i64 %10, ptr %7, align 8
  %11 = load i64, ptr %7, align 8
  %12 = inttoptr i64 %11 to ptr
  %13 = load i64, ptr %6, align 8
  %14 = call noundef i32 @_ZN10MemTracker14tracking_levelEv()
  %15 = icmp eq i32 %14, 3
  br i1 %15, label %16, label %17

16:                                               ; preds = %3
  call void @_ZN15NativeCallStackC1Ei(ptr noundef nonnull align 8 dereferenceable(32) %8, i32 noundef 1)
  br label %18

17:                                               ; preds = %3
  call void @_ZN15NativeCallStackC2ENS_10FakeMarkerE(ptr noundef nonnull align 8 dereferenceable(32) %8, i32 noundef 0)
  br label %18

18:                                               ; preds = %17, %16
  call void @_ZN10MemTracker28record_virtual_memory_commitEPvmRK15NativeCallStack(ptr noundef %12, i64 noundef %13, ptr noundef nonnull align 8 dereferenceable(32) %8)
  ret void
}