; Function Attrs: mustprogress nounwind uwtable
define hidden void @_ZNK22XPhysicalMemoryManager10nmt_commitEmm(ptr nocapture noundef nonnull readnone align 8 dereferenceable(160) %0, i64 noundef %1, i64 noundef %2) local_unnamed_addr #1 align 2 {
  %4 = alloca %class.ThreadCritical, align 1
  %5 = alloca %class.NativeCallStack, align 8
  %6 = load i64, ptr @XAddressOffsetMask, align 8
  %7 = and i64 %6, %1
  %8 = load i64, ptr @XAddressMetadataMarked0, align 8
  %9 = or i64 %7, %8
  %10 = load i32, ptr @_ZN10MemTracker15_tracking_levelE, align 4
  %11 = icmp eq i32 %10, 3
  br i1 %11, label %12, label %13

12:                                               ; preds = %3
  call void @_ZN15NativeCallStackC1Ei(ptr noundef nonnull align 8 dereferenceable(32) %5, i32 noundef 1) #13
  %.pre = load i32, ptr @_ZN10MemTracker15_tracking_levelE, align 4
  br label %13

13:                                               ; preds = %3, %12
  %14 = phi i32 [ %10, %3 ], [ %.pre, %12 ]
  call void @llvm.lifetime.start.p0(i64 1, ptr nonnull %4)
  %15 = icmp sgt i32 %14, 1
  %16 = icmp ne i64 %9, 0
  %or.cond.i = and i1 %16, %15
  br i1 %or.cond.i, label %17, label %_ZN10MemTracker28record_virtual_memory_commitEPvmRK15NativeCallStack.exit

17:                                               ; preds = %13
  %18 = inttoptr i64 %9 to ptr
  call void @_ZN14ThreadCriticalC1Ev(ptr noundef nonnull align 1 dereferenceable(1) %4) #13
  %19 = call noundef zeroext i1 @_ZN20VirtualMemoryTracker20add_committed_regionEPhmRK15NativeCallStack(ptr noundef nonnull %18, i64 noundef %2, ptr noundef nonnull align 8 dereferenceable(32) %5) #13
  call void @_ZN14ThreadCriticalD1Ev(ptr noundef nonnull align 1 dereferenceable(1) %4) #13
  br label %_ZN10MemTracker28record_virtual_memory_commitEPvmRK15NativeCallStack.exit

_ZN10MemTracker28record_virtual_memory_commitEPvmRK15NativeCallStack.exit: ; preds = %13, %17
  call void @llvm.lifetime.end.p0(i64 1, ptr nonnull %4)
  ret void
}